; Function Attrs: mustprogress nounwind uwtable
define hidden void @_ZN4LIEF5MachO14SegmentCommand14content_insertEmm(ptr noundef nonnull align 8 dereferenceable(216) %0, i64 noundef %1, i64 noundef %2) local_unnamed_addr #0 align 2 {
  %4 = alloca %"class.std::function.15", align 8
  call void @llvm.lifetime.start.p0(i64 32, ptr nonnull %4) #24
  %5 = getelementptr inbounds nuw i8, ptr %4, i64 16
  %6 = getelementptr inbounds nuw i8, ptr %4, i64 24
  call void @llvm.memset.p0.i64(ptr noundef nonnull align 8 dereferenceable(32) %4, i8 0, i64 16, i1 false)
  store ptr @"_ZNSt17_Function_handlerIFvRSt6vectorIhSaIhEEmmEZN4LIEF5MachO14SegmentCommand14content_insertEmmE3$_0E9_M_invokeERKSt9_Any_dataS3_OmSD_", ptr %6, align 8, !tbaa !109
  store ptr @"_ZNSt17_Function_handlerIFvRSt6vectorIhSaIhEEmmEZN4LIEF5MachO14SegmentCommand14content_insertEmmE3$_0E10_M_managerERSt9_Any_dataRKSA_St18_Manager_operation", ptr %5, align 8, !tbaa !105
  %7 = load ptr, ptr %0, align 8, !tbaa !17
  %8 = getelementptr inbounds nuw i8, ptr %7, i64 64
  %9 = load ptr, ptr %8, align 8
  call void %9(ptr noundef nonnull align 8 dereferenceable(216) %0, ptr noundef nonnull align 8 dereferenceable(32) %4, i64 noundef %1, i64 noundef %2) #24
  %10 = load ptr, ptr %5, align 8, !tbaa !105
  %.not.i = icmp eq ptr %10, null
  br i1 %.not.i, label %_ZNSt14_Function_baseD2Ev.exit, label %11

11:                                               ; preds = %3
  %12 = call noundef zeroext i1 %10(ptr noundef nonnull align 8 dereferenceable(32) %4, ptr noundef nonnull align 8 dereferenceable(32) %4, i32 noundef 3) #24
  br label %_ZNSt14_Function_baseD2Ev.exit

_ZNSt14_Function_baseD2Ev.exit:                   ; preds = %3, %11
  call void @llvm.lifetime.end.p0(i64 32, ptr nonnull %4) #24
  ret void
}